target datalayout = "e-m:e-p270:32:32-p271:32:32-p272:64:64-i64:64-i128:128-f80:128-n8:16:32:64-S128"
target triple = "x86_64-pc-linux-gnu"

%struct.archive = type { i32, i32, ptr, i32, ptr, i32, i32, ptr, %struct.archive_string, ptr, i32, i32, ptr, ptr, i64, i64, i64, i8, i64 }
%struct.archive_string = type { ptr, i64, i64 }
%struct.archive_write_filter = type { i64, ptr, ptr, ptr, ptr, ptr, ptr, ptr, ptr, ptr, ptr, i32, i32, i32, i32 }
%struct.private_uuencode = type { i32, %struct.archive_string, %struct.archive_string, i64, i64, [45 x i8] }

@.str.8 = private unnamed_addr constant [40 x i8] c"Can't allocate data for uuencode buffer\00", align 1
@.str.9 = private unnamed_addr constant [13 x i8] c"begin %o %s\0A\00", align 1

; Function Attrs: nounwind uwtable
define internal i32 @archive_filter_uuencode_open(ptr noundef %0) #0 {
  %2 = alloca i32, align 4
  %3 = alloca ptr, align 8
  %4 = alloca ptr, align 8
  %5 = alloca i64, align 8
  %6 = alloca i64, align 8
  %7 = alloca i32, align 4
  store ptr %0, ptr %3, align 8, !tbaa !11
  call void @llvm.lifetime.start.p0(i64 8, ptr %4) #7
  %8 = load ptr, ptr %3, align 8, !tbaa !11
  %9 = getelementptr inbounds nuw %struct.archive_write_filter, ptr %8, i32 0, i32 9
  %10 = load ptr, ptr %9, align 8, !tbaa !25
  store ptr %10, ptr %4, align 8, !tbaa !15
  call void @llvm.lifetime.start.p0(i64 8, ptr %5) #7
  store i64 65536, ptr %5, align 8, !tbaa !33
  call void @llvm.lifetime.start.p0(i64 8, ptr %6) #7
  %11 = load ptr, ptr %3, align 8, !tbaa !11
  %12 = getelementptr inbounds nuw %struct.archive_write_filter, ptr %11, i32 0, i32 1
  %13 = load ptr, ptr %12, align 8, !tbaa !17
  %14 = getelementptr inbounds nuw %struct.archive, ptr %13, i32 0, i32 0
  %15 = load i32, ptr %14, align 8, !tbaa !34
  %16 = icmp eq i32 %15, -1329217314
  br i1 %16, label %17, label %39

17:                                               ; preds = %1
  %18 = load ptr, ptr %3, align 8, !tbaa !11
  %19 = getelementptr inbounds nuw %struct.archive_write_filter, ptr %18, i32 0, i32 1
  %20 = load ptr, ptr %19, align 8, !tbaa !17
  %21 = call i32 @archive_write_get_bytes_per_block(ptr noundef %20)
  %22 = sext i32 %21 to i64
  store i64 %22, ptr %6, align 8, !tbaa !33
  %23 = load i64, ptr %6, align 8, !tbaa !33
  %24 = load i64, ptr %5, align 8, !tbaa !33
  %25 = icmp ugt i64 %23, %24
  br i1 %25, label %26, label %28

26:                                               ; preds = %17
  %27 = load i64, ptr %6, align 8, !tbaa !33
  store i64 %27, ptr %5, align 8, !tbaa !33
  br label %38

28:                                               ; preds = %17
  %29 = load i64, ptr %6, align 8, !tbaa !33
  %30 = icmp ne i64 %29, 0
  br i1 %30, label %31, label %37

31:                                               ; preds = %28
  %32 = load i64, ptr %5, align 8, !tbaa !33
  %33 = load i64, ptr %6, align 8, !tbaa !33
  %34 = urem i64 %32, %33
  %35 = load i64, ptr %5, align 8, !tbaa !33
  %36 = sub i64 %35, %34
  store i64 %36, ptr %5, align 8, !tbaa !33
  br label %37

37:                                               ; preds = %31, %28
  br label %38

38:                                               ; preds = %37, %26
  br label %39

39:                                               ; preds = %38, %1
  %40 = load i64, ptr %5, align 8, !tbaa !33
  %41 = load ptr, ptr %4, align 8, !tbaa !15
  %42 = getelementptr inbounds nuw %struct.private_uuencode, ptr %41, i32 0, i32 3
  store i64 %40, ptr %42, align 8, !tbaa !38
  %43 = load ptr, ptr %4, align 8, !tbaa !15
  %44 = getelementptr inbounds nuw %struct.private_uuencode, ptr %43, i32 0, i32 2
  %45 = load i64, ptr %5, align 8, !tbaa !33
  %46 = add i64 %45, 512
  %47 = call ptr @archive_string_ensure(ptr noundef %44, i64 noundef %46)
  %48 = icmp eq ptr %47, null
  br i1 %48, label %49, label %53

49:                                               ; preds = %39
  %50 = load ptr, ptr %3, align 8, !tbaa !11
  %51 = getelementptr inbounds nuw %struct.archive_write_filter, ptr %50, i32 0, i32 1
  %52 = load ptr, ptr %51, align 8, !tbaa !17
  call void (ptr, i32, ptr, ...) @archive_set_error(ptr noundef %52, i32 noundef 12, ptr noundef @.str.8)
  store i32 -30, ptr %2, align 4
  store i32 1, ptr %7, align 4
  br label %66

53:                                               ; preds = %39
  %54 = load ptr, ptr %4, align 8, !tbaa !15
  %55 = getelementptr inbounds nuw %struct.private_uuencode, ptr %54, i32 0, i32 2
  %56 = load ptr, ptr %4, align 8, !tbaa !15
  %57 = getelementptr inbounds nuw %struct.private_uuencode, ptr %56, i32 0, i32 0
  %58 = load i32, ptr %57, align 8, !tbaa !24
  %59 = load ptr, ptr %4, align 8, !tbaa !15
  %60 = getelementptr inbounds nuw %struct.private_uuencode, ptr %59, i32 0, i32 1
  %61 = getelementptr inbounds nuw %struct.archive_string, ptr %60, i32 0, i32 0
  %62 = load ptr, ptr %61, align 8, !tbaa !39
  call void (ptr, ptr, ...) @archive_string_sprintf(ptr noundef %55, ptr noundef @.str.9, i32 noundef %58, ptr noundef %62)
  %63 = load ptr, ptr %4, align 8, !tbaa !15
  %64 = load ptr, ptr %3, align 8, !tbaa !11
  %65 = getelementptr inbounds nuw %struct.archive_write_filter, ptr %64, i32 0, i32 9
  store ptr %63, ptr %65, align 8, !tbaa !25
  store i32 0, ptr %2, align 4
  store i32 1, ptr %7, align 4
  br label %66

66:                                               ; preds = %53, %49
  call void @llvm.lifetime.end.p0(i64 8, ptr %6) #7
  call void @llvm.lifetime.end.p0(i64 8, ptr %5) #7
  call void @llvm.lifetime.end.p0(i64 8, ptr %4) #7
  %67 = load i32, ptr %2, align 4
  ret i32 %67
}