; Function Attrs: nounwind uwtable
define internal range(i32 -30, 1) i32 @archive_filter_uuencode_open(ptr noundef captures(none) %0) #0 {
  %2 = getelementptr inbounds nuw i8, ptr %0, i64 72
  %3 = load ptr, ptr %2, align 8, !tbaa !17
  %4 = getelementptr inbounds nuw i8, ptr %0, i64 8
  %5 = load ptr, ptr %4, align 8, !tbaa !4
  %6 = load i32, ptr %5, align 8, !tbaa !25
  %7 = icmp eq i32 %6, -1329217314
  br i1 %7, label %8, label %16

8:                                                ; preds = %1
  %9 = tail call i32 @archive_write_get_bytes_per_block(ptr noundef nonnull %5) #6
  %10 = sext i32 %9 to i64
  %11 = icmp ugt i32 %9, 65536
  br i1 %11, label %16, label %12

12:                                               ; preds = %8
  %.not = icmp eq i32 %9, 0
  br i1 %.not, label %16, label %13

13:                                               ; preds = %12
  %14 = urem i64 65536, %10
  %15 = sub nuw nsw i64 65536, %14
  br label %16

16:                                               ; preds = %8, %13, %12, %1
  %.020 = phi i64 [ %15, %13 ], [ 65536, %12 ], [ 65536, %1 ], [ %10, %8 ]
  %17 = getelementptr inbounds nuw i8, ptr %3, i64 56
  store i64 %.020, ptr %17, align 8, !tbaa !29
  %18 = getelementptr inbounds nuw i8, ptr %3, i64 32
  %19 = add nsw i64 %.020, 512
  %20 = tail call ptr @archive_string_ensure(ptr noundef nonnull %18, i64 noundef %19) #6
  %21 = icmp eq ptr %20, null
  br i1 %21, label %22, label %24

22:                                               ; preds = %16
  %23 = load ptr, ptr %4, align 8, !tbaa !4
  tail call void (ptr, i32, ptr, ...) @archive_set_error(ptr noundef %23, i32 noundef 12, ptr noundef nonnull @.str.8) #6
  br label %28

24:                                               ; preds = %16
  %25 = load i32, ptr %3, align 8, !tbaa !14
  %26 = getelementptr inbounds nuw i8, ptr %3, i64 8
  %27 = load ptr, ptr %26, align 8, !tbaa !30
  tail call void (ptr, ptr, ...) @archive_string_sprintf(ptr noundef nonnull %18, ptr noundef nonnull @.str.9, i32 noundef %25, ptr noundef %27) #6
  store ptr %3, ptr %2, align 8, !tbaa !17
  br label %28

28:                                               ; preds = %24, %22
  %.0 = phi i32 [ -30, %22 ], [ 0, %24 ]
  ret i32 %.0
}